; Function Attrs: mustprogress nounwind uwtable
define internal void @_ZNSt23_Sp_counted_ptr_inplaceIN12_GLOBAL__N_117LoadedCommandImplESaIvELN9__gnu_cxx12_Lock_policyE2EE10_M_disposeEv(ptr noundef nonnull align 8 dereferenceable(112) %0) unnamed_addr #3 align 2 personality ptr @__gxx_personality_v0 {
  %2 = getelementptr inbounds i8, ptr %0, i64 64
  %3 = load ptr, ptr %2, align 8
  %.not.i.i.i = icmp eq ptr %3, null
  br i1 %.not.i.i.i, label %17, label %4

4:                                                ; preds = %1
  %5 = getelementptr inbounds i8, ptr %0, i64 16
  %6 = getelementptr inbounds i8, ptr %0, i64 88
  %7 = load ptr, ptr %6, align 8
  %.not.i.i.i.i = icmp eq ptr %7, null
  %8 = select i1 %.not.i.i.i.i, ptr @.str.40, ptr %7
  store ptr %8, ptr @_ZN12_GLOBAL__N_18LastNameE, align 8
  %9 = tail call ptr @signal(i32 noundef 11, ptr noundef nonnull @TrapsForSignals) #30
  %10 = tail call ptr @signal(i32 noundef 7, ptr noundef nonnull @TrapsForSignals) #30
  %11 = tail call ptr @signal(i32 noundef 4, ptr noundef nonnull @TrapsForSignals) #30
  %12 = load ptr, ptr %2, align 8
  invoke void %12(ptr noundef nonnull %5)
          to label %13 unwind label %21

13:                                               ; preds = %4
  %14 = tail call ptr @signal(i32 noundef 11, ptr noundef null) #30
  %15 = tail call ptr @signal(i32 noundef 7, ptr noundef null) #30
  %16 = tail call ptr @signal(i32 noundef 4, ptr noundef null) #30
  br label %17

17:                                               ; preds = %13, %1
  %18 = getelementptr inbounds i8, ptr %0, i64 96
  %19 = load ptr, ptr %18, align 8
  %.not1.i.i.i = icmp eq ptr %19, null
  br i1 %.not1.i.i.i, label %_ZNSt16allocator_traitsISaIvEE7destroyIN12_GLOBAL__N_117LoadedCommandImplEEEvRS0_PT_.exit, label %20

20:                                               ; preds = %17
  tail call void @free(ptr noundef nonnull %19) #30
  br label %_ZNSt16allocator_traitsISaIvEE7destroyIN12_GLOBAL__N_117LoadedCommandImplEEEvRS0_PT_.exit

21:                                               ; preds = %4
  %22 = landingpad { ptr, i32 }
          catch ptr null
  %23 = extractvalue { ptr, i32 } %22, 0
  tail call void @__clang_call_terminate(ptr %23) #28
  unreachable

_ZNSt16allocator_traitsISaIvEE7destroyIN12_GLOBAL__N_117LoadedCommandImplEEEvRS0_PT_.exit: ; preds = %17, %20
  ret void
}